target datalayout = "e-m:e-p270:32:32-p271:32:32-p272:64:64-i64:64-i128:128-f80:128-n8:16:32:64-S128"
target triple = "x86_64-pc-linux-gnu"

; Function Attrs: nounwind uwtable
define dso_local signext i8 @Curl_raw_tolower(i8 noundef signext %0) #0 {
  %2 = alloca i8, align 1
  store i8 %0, ptr %2, align 1, !tbaa !4
  %3 = load i8, ptr %2, align 1, !tbaa !4
  %4 = zext i8 %3 to i64
  %5 = getelementptr inbounds nuw [256 x i8], ptr @tolowermap, i64 0, i64 %4
  %6 = load i8, ptr %5, align 1, !tbaa !4
  ret i8 %6
}

; Function Attrs: nounwind uwtable
define dso_local void @Curl_strntolower(ptr noundef %0, ptr noundef %1, i64 noundef %2) #0 {
  %4 = alloca ptr, align 8
  %5 = alloca ptr, align 8
  %6 = alloca i64, align 8
  store ptr %0, ptr %4, align 8, !tbaa !7
  store ptr %1, ptr %5, align 8, !tbaa !7
  store i64 %2, ptr %6, align 8, !tbaa !12
  %7 = load i64, ptr %6, align 8, !tbaa !12
  %8 = icmp ult i64 %7, 1
  br i1 %8, label %9, label %10

9:                                                ; preds = %3
  br label %29

10:                                               ; preds = %3
  br label %11

11:                                               ; preds = %27, %10
  %12 = load ptr, ptr %5, align 8, !tbaa !7
  %13 = load i8, ptr %12, align 1, !tbaa !4
  %14 = call signext i8 @Curl_raw_tolower(i8 noundef signext %13)
  %15 = load ptr, ptr %4, align 8, !tbaa !7
  %16 = getelementptr inbounds nuw i8, ptr %15, i32 1
  store ptr %16, ptr %4, align 8, !tbaa !7
  store i8 %14, ptr %15, align 1, !tbaa !4
  br label %17

17:                                               ; preds = %11
  %18 = load ptr, ptr %5, align 8, !tbaa !7
  %19 = getelementptr inbounds nuw i8, ptr %18, i32 1
  store ptr %19, ptr %5, align 8, !tbaa !7
  %20 = load i8, ptr %18, align 1, !tbaa !4
  %21 = sext i8 %20 to i32
  %22 = icmp ne i32 %21, 0
  br i1 %22, label %23, label %27

23:                                               ; preds = %17
  %24 = load i64, ptr %6, align 8, !tbaa !12
  %25 = add i64 %24, -1
  store i64 %25, ptr %6, align 8, !tbaa !12
  %26 = icmp ne i64 %25, 0
  br label %27

27:                                               ; preds = %23, %17
  %28 = phi i1 [ false, %17 ], [ %26, %23 ]
  br i1 %28, label %11, label %29, !llvm.loop !16

29:                                               ; preds = %9, %27
  ret void
}