; Function Attrs: nofree norecurse nosync nounwind memory(argmem: readwrite) uwtable
define dso_local void @Curl_strntolower(ptr noundef writeonly captures(none) %0, ptr noundef readonly captures(none) %1, i64 noundef %2) local_unnamed_addr #2 {
  %4 = icmp eq i64 %2, 0
  br i1 %4, label %.critedge, label %.preheader

.preheader:                                       ; preds = %3, %.preheader
  %.05 = phi ptr [ %11, %.preheader ], [ %0, %3 ]
  %.04 = phi ptr [ %10, %.preheader ], [ %1, %3 ]
  %.0 = phi i64 [ %12, %.preheader ], [ %2, %3 ]
  %5 = load i8, ptr %.04, align 1, !tbaa !4
  %6 = zext i8 %5 to i64
  %7 = getelementptr inbounds nuw [256 x i8], ptr @tolowermap, i64 0, i64 %6
  %8 = load i8, ptr %7, align 1, !tbaa !4
  store i8 %8, ptr %.05, align 1, !tbaa !4
  %9 = load i8, ptr %.04, align 1, !tbaa !4
  %.not = icmp eq i8 %9, 0
  %10 = getelementptr inbounds nuw i8, ptr %.04, i64 1
  %11 = getelementptr inbounds nuw i8, ptr %.05, i64 1
  %12 = add i64 %.0, -1
  %.not8 = icmp eq i64 %12, 0
  %or.cond = select i1 %.not, i1 true, i1 %.not8
  br i1 %or.cond, label %.critedge, label %.preheader, !llvm.loop !11

.critedge:                                        ; preds = %.preheader, %3
  ret void
}